; Function Attrs: mustprogress nounwind uwtable
define void @_ZN6icu_7523RuleBasedTransliteratorD2Ev(ptr noundef nonnull align 8 dereferenceable(97) %this) unnamed_addr #4 align 2 {
entry:
  store ptr getelementptr inbounds ({ [19 x ptr] }, ptr @_ZTVN6icu_7523RuleBasedTransliteratorE, i64 0, i32 0, i64 2), ptr %this, align 8
  %isDataOwned = getelementptr inbounds i8, ptr %this, i64 96
  %0 = load i8, ptr %isDataOwned, align 8
  %tobool.not = icmp eq i8 %0, 0
  br i1 %tobool.not, label %if.end, label %if.then

if.then:                                          ; preds = %entry
  %fData = getelementptr inbounds i8, ptr %this, i64 88
  %1 = load ptr, ptr %fData, align 8
  %isnull = icmp eq ptr %1, null
  br i1 %isnull, label %if.end, label %delete.notnull

delete.notnull:                                   ; preds = %if.then
  tail call void @_ZN6icu_7523TransliterationRuleDataD1Ev(ptr noundef nonnull align 8 dereferenceable(1168) %1) #6
  tail call void @_ZN6icu_757UMemorydlEPv(ptr noundef nonnull %1) #6
  br label %if.end

if.end:                                           ; preds = %if.then, %delete.notnull, %entry
  tail call void @_ZN6icu_7514TransliteratorD2Ev(ptr noundef nonnull align 8 dereferenceable(84) %this) #6
  ret void
}